; ModuleID = 'source-C-CXX/56/3381.c'
source_filename = "source-C-CXX/56/3381.c"
target datalayout = "e-m:e-p270:32:32-p271:32:32-p272:64:64-i64:64-f80:128-n8:16:32:64-S128"
target triple = "x86_64-pc-linux-gnu"

@.str = private unnamed_addr constant [4 x i8] c"%d\0A\00", align 1

; Function Attrs: nounwind sspstrong uwtable
define dso_local i32 @main() local_unnamed_addr #0 {
  %1 = alloca i32, align 4
  %2 = alloca [33 x i8], align 16
  %3 = bitcast i32* %1 to i8*
  call void @llvm.lifetime.start.p0i8(i64 4, i8* nonnull %3) #5
  %4 = getelementptr inbounds [33 x i8], [33 x i8]* %2, i64 0, i64 0
  call void @llvm.lifetime.start.p0i8(i64 33, i8* nonnull %4) #5
  %5 = call i32 (i8*, ...) @__isoc99_scanf(i8* getelementptr inbounds ([4 x i8], [4 x i8]* @.str, i64 0, i64 0), i32* nonnull %1)
  %6 = load i32, i32* %1, align 4, !tbaa !5
  %7 = icmp slt i32 %6, 1
  br i1 %7, label %51, label %8

8:                                                ; preds = %0, %47
  %9 = phi i32 [ %48, %47 ], [ 1, %0 ]
  %10 = call i32 (i8*, ...) bitcast (i32 (...)* @gets to i32 (i8*, ...)*)(i8* nonnull %4) #5
  %11 = call i64 @strlen(i8* noundef nonnull %4) #6
  %12 = shl i64 %11, 32
  %13 = add i64 %12, -4294967296
  %14 = ashr exact i64 %13, 32
  %15 = getelementptr inbounds [33 x i8], [33 x i8]* %2, i64 0, i64 %14
  %16 = load i8, i8* %15, align 1, !tbaa !9
  switch i8 %16, label %47 [
    i8 103, label %17
    i8 121, label %29
    i8 114, label %35
  ]

17:                                               ; preds = %8
  %18 = add i64 %12, -8589934592
  %19 = ashr exact i64 %18, 32
  %20 = getelementptr inbounds [33 x i8], [33 x i8]* %2, i64 0, i64 %19
  %21 = load i8, i8* %20, align 1, !tbaa !9
  %22 = icmp eq i8 %21, 110
  br i1 %22, label %23, label %47

23:                                               ; preds = %17
  %24 = add i64 %12, -12884901888
  %25 = ashr exact i64 %24, 32
  %26 = getelementptr inbounds [33 x i8], [33 x i8]* %2, i64 0, i64 %25
  %27 = load i8, i8* %26, align 1, !tbaa !9
  %28 = icmp eq i8 %27, 105
  br i1 %28, label %44, label %47

29:                                               ; preds = %8
  %30 = add i64 %12, -8589934592
  %31 = ashr exact i64 %30, 32
  %32 = getelementptr inbounds [33 x i8], [33 x i8]* %2, i64 0, i64 %31
  %33 = load i8, i8* %32, align 1, !tbaa !9
  %34 = icmp eq i8 %33, 108
  br i1 %34, label %41, label %47

35:                                               ; preds = %8
  %36 = add i64 %12, -8589934592
  %37 = ashr exact i64 %36, 32
  %38 = getelementptr inbounds [33 x i8], [33 x i8]* %2, i64 0, i64 %37
  %39 = load i8, i8* %38, align 1, !tbaa !9
  %40 = icmp eq i8 %39, 101
  br i1 %40, label %41, label %47

41:                                               ; preds = %35, %29
  %42 = phi i64 [ %37, %35 ], [ %31, %29 ]
  %43 = getelementptr inbounds [33 x i8], [33 x i8]* %2, i64 0, i64 %42
  br label %44

44:                                               ; preds = %23, %41
  %45 = phi i8* [ %43, %41 ], [ %26, %23 ]
  store i8 0, i8* %45, align 1, !tbaa !9
  %46 = call i32 @puts(i8* nonnull %4)
  br label %47

47:                                               ; preds = %44, %8, %17, %23, %29, %35
  %48 = add nuw nsw i32 %9, 1
  %49 = load i32, i32* %1, align 4, !tbaa !5
  %50 = icmp slt i32 %9, %49
  br i1 %50, label %8, label %51, !llvm.loop !10

51:                                               ; preds = %47, %0
  call void @llvm.lifetime.end.p0i8(i64 33, i8* nonnull %4) #5
  call void @llvm.lifetime.end.p0i8(i64 4, i8* nonnull %3) #5
  ret i32 0
}

; Function Attrs: argmemonly mustprogress nofree nosync nounwind willreturn
declare void @llvm.lifetime.start.p0i8(i64 immarg, i8* nocapture) #1

; Function Attrs: nofree nounwind
declare noundef i32 @__isoc99_scanf(i8* nocapture noundef readonly, ...) local_unnamed_addr #2

declare i32 @gets(...) local_unnamed_addr #3

; Function Attrs: argmemonly mustprogress nofree nounwind readonly willreturn
declare i64 @strlen(i8* nocapture) local_unnamed_addr #4

; Function Attrs: nofree nounwind
declare noundef i32 @puts(i8* nocapture noundef readonly) local_unnamed_addr #2

; Function Attrs: argmemonly mustprogress nofree nosync nounwind willreturn
declare void @llvm.lifetime.end.p0i8(i64 immarg, i8* nocapture) #1


!llvm.module.flags = !{!0, !1, !2, !3}
!llvm.ident = !{!4}

!0 = !{i32 1, !"wchar_size", i32 4}
!1 = !{i32 7, !"PIC Level", i32 2}
!2 = !{i32 7, !"PIE Level", i32 2}
!3 = !{i32 7, !"uwtable", i32 1}
!4 = !{!"clang version 13.0.0"}
!5 = !{!6, !6, i64 0}
!6 = !{!"int", !7, i64 0}
!7 = !{!"omnipotent char", !8, i64 0}
!8 = !{!"Simple C/C++ TBAA"}
!9 = !{!7, !7, i64 0}
!10 = distinct !{!10, !11}
!11 = !{!"llvm.loop.mustprogress"}
